target datalayout = "e-m:e-p270:32:32-p271:32:32-p272:64:64-i64:64-i128:128-f80:128-n8:16:32:64-S128"
target triple = "x86_64-pc-linux-gnu"

%struct.b2TreeNode = type { %struct.b2AABB, i64, %union.anon, i32, %union.anon.0, i16, i16 }
%struct.b2AABB = type { %struct.b2Vec2, %struct.b2Vec2 }
%struct.b2Vec2 = type { float, float }
%union.anon = type { i32 }
%union.anon.0 = type { i32 }
%struct.b2DynamicTree = type { ptr, i32, i32, i32, i32, i32, ptr, ptr, ptr, ptr, i32 }

@b2_defaultTreeNode = internal global %struct.b2TreeNode { %struct.b2AABB zeroinitializer, i64 1, %union.anon { i32 -1 }, i32 -1, %union.anon.0 { i32 -1 }, i16 0, i16 1 }, align 8

; Function Attrs: nounwind uwtable
define internal i32 @b2AllocateNode(ptr noundef %0) #0 {
  %2 = alloca ptr, align 8
  %3 = alloca ptr, align 8
  %4 = alloca i32, align 4
  %5 = alloca i32, align 4
  %6 = alloca i32, align 4
  %7 = alloca ptr, align 8
  store ptr %0, ptr %2, align 8, !tbaa !27
  %8 = load ptr, ptr %2, align 8, !tbaa !27
  %9 = getelementptr inbounds nuw %struct.b2DynamicTree, ptr %8, i32 0, i32 4
  %10 = load i32, ptr %9, align 4, !tbaa !20
  %11 = icmp eq i32 %10, -1
  br i1 %11, label %12, label %105

12:                                               ; preds = %1
  call void @llvm.lifetime.start.p0(i64 8, ptr %3) #9
  %13 = load ptr, ptr %2, align 8, !tbaa !27
  %14 = getelementptr inbounds nuw %struct.b2DynamicTree, ptr %13, i32 0, i32 0
  %15 = load ptr, ptr %14, align 8, !tbaa !15
  store ptr %15, ptr %3, align 8, !tbaa !31
  call void @llvm.lifetime.start.p0(i64 4, ptr %4) #9
  %16 = load ptr, ptr %2, align 8, !tbaa !27
  %17 = getelementptr inbounds nuw %struct.b2DynamicTree, ptr %16, i32 0, i32 3
  %18 = load i32, ptr %17, align 8, !tbaa !13
  store i32 %18, ptr %4, align 4, !tbaa !16
  %19 = load i32, ptr %4, align 4, !tbaa !16
  %20 = ashr i32 %19, 1
  %21 = load ptr, ptr %2, align 8, !tbaa !27
  %22 = getelementptr inbounds nuw %struct.b2DynamicTree, ptr %21, i32 0, i32 3
  %23 = load i32, ptr %22, align 8, !tbaa !13
  %24 = add nsw i32 %23, %20
  store i32 %24, ptr %22, align 8, !tbaa !13
  %25 = load ptr, ptr %2, align 8, !tbaa !27
  %26 = getelementptr inbounds nuw %struct.b2DynamicTree, ptr %25, i32 0, i32 3
  %27 = load i32, ptr %26, align 8, !tbaa !13
  %28 = sext i32 %27 to i64
  %29 = mul i64 %28, 40
  %30 = trunc i64 %29 to i32
  %31 = call ptr @b2Alloc(i32 noundef %30)
  %32 = load ptr, ptr %2, align 8, !tbaa !27
  %33 = getelementptr inbounds nuw %struct.b2DynamicTree, ptr %32, i32 0, i32 0
  store ptr %31, ptr %33, align 8, !tbaa !15
  %34 = load ptr, ptr %2, align 8, !tbaa !27
  %35 = getelementptr inbounds nuw %struct.b2DynamicTree, ptr %34, i32 0, i32 0
  %36 = load ptr, ptr %35, align 8, !tbaa !15
  %37 = load ptr, ptr %3, align 8, !tbaa !31
  %38 = load ptr, ptr %2, align 8, !tbaa !27
  %39 = getelementptr inbounds nuw %struct.b2DynamicTree, ptr %38, i32 0, i32 2
  %40 = load i32, ptr %39, align 4, !tbaa !14
  %41 = sext i32 %40 to i64
  %42 = mul i64 %41, 40
  call void @llvm.memcpy.p0.p0.i64(ptr align 8 %36, ptr align 8 %37, i64 %42, i1 false)
  %43 = load ptr, ptr %2, align 8, !tbaa !27
  %44 = getelementptr inbounds nuw %struct.b2DynamicTree, ptr %43, i32 0, i32 0
  %45 = load ptr, ptr %44, align 8, !tbaa !15
  %46 = load ptr, ptr %2, align 8, !tbaa !27
  %47 = getelementptr inbounds nuw %struct.b2DynamicTree, ptr %46, i32 0, i32 2
  %48 = load i32, ptr %47, align 4, !tbaa !14
  %49 = sext i32 %48 to i64
  %50 = getelementptr inbounds %struct.b2TreeNode, ptr %45, i64 %49
  %51 = load ptr, ptr %2, align 8, !tbaa !27
  %52 = getelementptr inbounds nuw %struct.b2DynamicTree, ptr %51, i32 0, i32 3
  %53 = load i32, ptr %52, align 8, !tbaa !13
  %54 = load ptr, ptr %2, align 8, !tbaa !27
  %55 = getelementptr inbounds nuw %struct.b2DynamicTree, ptr %54, i32 0, i32 2
  %56 = load i32, ptr %55, align 4, !tbaa !14
  %57 = sub nsw i32 %53, %56
  %58 = sext i32 %57 to i64
  %59 = mul i64 %58, 40
  call void @llvm.memset.p0.i64(ptr align 8 %50, i8 0, i64 %59, i1 false)
  %60 = load ptr, ptr %3, align 8, !tbaa !31
  %61 = load i32, ptr %4, align 4, !tbaa !16
  %62 = sext i32 %61 to i64
  %63 = mul i64 %62, 40
  %64 = trunc i64 %63 to i32
  call void @b2Free(ptr noundef %60, i32 noundef %64)
  call void @llvm.lifetime.start.p0(i64 4, ptr %5) #9
  %65 = load ptr, ptr %2, align 8, !tbaa !27
  %66 = getelementptr inbounds nuw %struct.b2DynamicTree, ptr %65, i32 0, i32 2
  %67 = load i32, ptr %66, align 4, !tbaa !14
  store i32 %67, ptr %5, align 4, !tbaa !16
  br label %68

68:                                               ; preds = %86, %12
  %69 = load i32, ptr %5, align 4, !tbaa !16
  %70 = load ptr, ptr %2, align 8, !tbaa !27
  %71 = getelementptr inbounds nuw %struct.b2DynamicTree, ptr %70, i32 0, i32 3
  %72 = load i32, ptr %71, align 8, !tbaa !13
  %73 = sub nsw i32 %72, 1
  %74 = icmp slt i32 %69, %73
  br i1 %74, label %76, label %75

75:                                               ; preds = %68
  call void @llvm.lifetime.end.p0(i64 4, ptr %5) #9
  br label %89

76:                                               ; preds = %68
  %77 = load i32, ptr %5, align 4, !tbaa !16
  %78 = add nsw i32 %77, 1
  %79 = load ptr, ptr %2, align 8, !tbaa !27
  %80 = getelementptr inbounds nuw %struct.b2DynamicTree, ptr %79, i32 0, i32 0
  %81 = load ptr, ptr %80, align 8, !tbaa !15
  %82 = load i32, ptr %5, align 4, !tbaa !16
  %83 = sext i32 %82 to i64
  %84 = getelementptr inbounds %struct.b2TreeNode, ptr %81, i64 %83
  %85 = getelementptr inbounds nuw %struct.b2TreeNode, ptr %84, i32 0, i32 2
  store i32 %78, ptr %85, align 8, !tbaa !17
  br label %86

86:                                               ; preds = %76
  %87 = load i32, ptr %5, align 4, !tbaa !16
  %88 = add nsw i32 %87, 1
  store i32 %88, ptr %5, align 4, !tbaa !16
  br label %68, !llvm.loop !46

89:                                               ; preds = %75
  %90 = load ptr, ptr %2, align 8, !tbaa !27
  %91 = getelementptr inbounds nuw %struct.b2DynamicTree, ptr %90, i32 0, i32 0
  %92 = load ptr, ptr %91, align 8, !tbaa !15
  %93 = load ptr, ptr %2, align 8, !tbaa !27
  %94 = getelementptr inbounds nuw %struct.b2DynamicTree, ptr %93, i32 0, i32 3
  %95 = load i32, ptr %94, align 8, !tbaa !13
  %96 = sub nsw i32 %95, 1
  %97 = sext i32 %96 to i64
  %98 = getelementptr inbounds %struct.b2TreeNode, ptr %92, i64 %97
  %99 = getelementptr inbounds nuw %struct.b2TreeNode, ptr %98, i32 0, i32 2
  store i32 -1, ptr %99, align 8, !tbaa !17
  %100 = load ptr, ptr %2, align 8, !tbaa !27
  %101 = getelementptr inbounds nuw %struct.b2DynamicTree, ptr %100, i32 0, i32 2
  %102 = load i32, ptr %101, align 4, !tbaa !14
  %103 = load ptr, ptr %2, align 8, !tbaa !27
  %104 = getelementptr inbounds nuw %struct.b2DynamicTree, ptr %103, i32 0, i32 4
  store i32 %102, ptr %104, align 4, !tbaa !20
  call void @llvm.lifetime.end.p0(i64 4, ptr %4) #9
  call void @llvm.lifetime.end.p0(i64 8, ptr %3) #9
  br label %105

105:                                              ; preds = %89, %1
  call void @llvm.lifetime.start.p0(i64 4, ptr %6) #9
  %106 = load ptr, ptr %2, align 8, !tbaa !27
  %107 = getelementptr inbounds nuw %struct.b2DynamicTree, ptr %106, i32 0, i32 4
  %108 = load i32, ptr %107, align 4, !tbaa !20
  store i32 %108, ptr %6, align 4, !tbaa !16
  call void @llvm.lifetime.start.p0(i64 8, ptr %7) #9
  %109 = load ptr, ptr %2, align 8, !tbaa !27
  %110 = getelementptr inbounds nuw %struct.b2DynamicTree, ptr %109, i32 0, i32 0
  %111 = load ptr, ptr %110, align 8, !tbaa !15
  %112 = load i32, ptr %6, align 4, !tbaa !16
  %113 = sext i32 %112 to i64
  %114 = getelementptr inbounds %struct.b2TreeNode, ptr %111, i64 %113
  store ptr %114, ptr %7, align 8, !tbaa !31
  %115 = load ptr, ptr %7, align 8, !tbaa !31
  %116 = getelementptr inbounds nuw %struct.b2TreeNode, ptr %115, i32 0, i32 2
  %117 = load i32, ptr %116, align 8, !tbaa !17
  %118 = load ptr, ptr %2, align 8, !tbaa !27
  %119 = getelementptr inbounds nuw %struct.b2DynamicTree, ptr %118, i32 0, i32 4
  store i32 %117, ptr %119, align 4, !tbaa !20
  %120 = load ptr, ptr %7, align 8, !tbaa !31
  call void @llvm.memcpy.p0.p0.i64(ptr align 8 %120, ptr align 8 @b2_defaultTreeNode, i64 40, i1 false), !tbaa.struct !47
  %121 = load ptr, ptr %2, align 8, !tbaa !27
  %122 = getelementptr inbounds nuw %struct.b2DynamicTree, ptr %121, i32 0, i32 2
  %123 = load i32, ptr %122, align 4, !tbaa !14
  %124 = add nsw i32 %123, 1
  store i32 %124, ptr %122, align 4, !tbaa !14
  %125 = load i32, ptr %6, align 4, !tbaa !16
  call void @llvm.lifetime.end.p0(i64 8, ptr %7) #9
  call void @llvm.lifetime.end.p0(i64 4, ptr %6) #9
  ret i32 %125
}