; Function Attrs: nounwind uwtable
define internal fastcc i32 @b2AllocateNode(ptr noundef captures(none) %0) unnamed_addr #0 {
  %2 = getelementptr inbounds nuw i8, ptr %0, i64 20
  %3 = load i32, ptr %2, align 4, !tbaa !17
  %4 = icmp eq i32 %3, -1
  br i1 %4, label %5, label %41

5:                                                ; preds = %1
  %6 = load ptr, ptr %0, align 8, !tbaa !15
  %7 = getelementptr inbounds nuw i8, ptr %0, i64 16
  %8 = load i32, ptr %7, align 8, !tbaa !13
  %9 = ashr i32 %8, 1
  %10 = add nsw i32 %9, %8
  store i32 %10, ptr %7, align 8, !tbaa !13
  %11 = mul i32 %10, 40
  %12 = tail call ptr @b2Alloc(i32 noundef %11) #13
  store ptr %12, ptr %0, align 8, !tbaa !15
  %13 = getelementptr inbounds nuw i8, ptr %0, i64 12
  %14 = load i32, ptr %13, align 4, !tbaa !14
  %15 = sext i32 %14 to i64
  %16 = mul nsw i64 %15, 40
  tail call void @llvm.memcpy.p0.p0.i64(ptr align 8 %12, ptr align 8 %6, i64 %16, i1 false)
  %17 = load ptr, ptr %0, align 8, !tbaa !15
  %18 = load i32, ptr %13, align 4, !tbaa !14
  %19 = sext i32 %18 to i64
  %20 = getelementptr inbounds %struct.b2TreeNode, ptr %17, i64 %19
  %21 = load i32, ptr %7, align 8, !tbaa !13
  %22 = sub nsw i32 %21, %18
  %23 = sext i32 %22 to i64
  %24 = mul nsw i64 %23, 40
  tail call void @llvm.memset.p0.i64(ptr align 8 %20, i8 0, i64 %24, i1 false)
  %25 = mul i32 %8, 40
  tail call void @b2Free(ptr noundef %6, i32 noundef %25) #13
  %26 = load i32, ptr %13, align 4, !tbaa !14
  %27 = load i32, ptr %7, align 8, !tbaa !13
  %28 = add nsw i32 %27, -1
  %29 = icmp slt i32 %26, %28
  br i1 %29, label %.lr.ph.preheader, label %.._crit_edge_crit_edge

.._crit_edge_crit_edge:                           ; preds = %5
  %.pre = sext i32 %28 to i64
  br label %._crit_edge

.lr.ph.preheader:                                 ; preds = %5
  %30 = sext i32 %26 to i64
  br label %.lr.ph

._crit_edge:                                      ; preds = %.lr.ph, %.._crit_edge_crit_edge
  %.pre-phi = phi i64 [ %.pre, %.._crit_edge_crit_edge ], [ %39, %.lr.ph ]
  %31 = load ptr, ptr %0, align 8, !tbaa !15
  %32 = getelementptr inbounds %struct.b2TreeNode, ptr %31, i64 %.pre-phi, i32 2
  store i32 -1, ptr %32, align 8, !tbaa !16
  %33 = load i32, ptr %13, align 4, !tbaa !14
  store i32 %33, ptr %2, align 4, !tbaa !17
  br label %41

.lr.ph:                                           ; preds = %.lr.ph.preheader, %.lr.ph
  %indvars.iv = phi i64 [ %30, %.lr.ph.preheader ], [ %indvars.iv.next, %.lr.ph ]
  %indvars.iv.next = add nsw i64 %indvars.iv, 1
  %34 = load ptr, ptr %0, align 8, !tbaa !15
  %35 = getelementptr inbounds %struct.b2TreeNode, ptr %34, i64 %indvars.iv, i32 2
  %36 = trunc nsw i64 %indvars.iv.next to i32
  store i32 %36, ptr %35, align 8, !tbaa !16
  %37 = load i32, ptr %7, align 8, !tbaa !13
  %38 = add nsw i32 %37, -1
  %39 = sext i32 %38 to i64
  %40 = icmp slt i64 %indvars.iv.next, %39
  br i1 %40, label %.lr.ph, label %._crit_edge, !llvm.loop !35

41:                                               ; preds = %._crit_edge, %1
  %42 = phi i32 [ %33, %._crit_edge ], [ %3, %1 ]
  %43 = load ptr, ptr %0, align 8, !tbaa !15
  %44 = sext i32 %42 to i64
  %45 = getelementptr inbounds %struct.b2TreeNode, ptr %43, i64 %44
  %46 = getelementptr inbounds nuw i8, ptr %45, i64 24
  %47 = load i32, ptr %46, align 8, !tbaa !16
  store i32 %47, ptr %2, align 4, !tbaa !17
  tail call void @llvm.memcpy.p0.p0.i64(ptr noundef nonnull align 8 dereferenceable(40) %45, ptr noundef nonnull align 8 dereferenceable(40) @b2_defaultTreeNode, i64 40, i1 false), !tbaa.struct !36
  %48 = getelementptr inbounds nuw i8, ptr %0, i64 12
  %49 = load i32, ptr %48, align 4, !tbaa !14
  %50 = add nsw i32 %49, 1
  store i32 %50, ptr %48, align 4, !tbaa !14
  ret i32 %42
}